Certificate:
    Data:
        Version: 1 (0x0)
        Serial Number:
            ab:fd:52:3c:3e:52:c0:7b
        Signature Algorithm: sha1WithRSAEncryption
        Issuer: DC = jim, DC = com
        Validity
            Not Before: Jul 22 01:04:26 2016 GMT
            Not After : Jul 22 01:04:26 2017 GMT
        Subject: DC = jim, DC = com
        Subject Public Key Info:
            Public Key Algorithm: rsaEncryption
                RSA Public-Key: (1024 bit)
                Modulus:
                    00:d5:9a:5d:d8:0d:5a:a2:98:5c:95:80:af:2b:80:
                    41:22:b4:0f:be:1a:ae:bb:ad:7a:af:29:5e:34:57:
                    91:a5:4f:b3:86:40:bf:a2:d3:3a:d7:f2:29:0b:47:
                    c2:29:0a:f5:5c:b3:7e:c5:ef:c2:a8:84:5f:70:0e:
                    3f:39:e2:79:1c:50:26:cd:87:42:62:86:8a:f7:23:
                    96:98:96:9b:c4:16:53:b8:4b:c9:e3:57:0f:4a:3a:
                    b6:3e:2f:df:f4:00:b4:40:2b:a5:0e:f7:a8:13:c1:
                    13:96:e6:8f:fc:82:dc:83:c5:42:71:10:5d:83:89:
                    6c:de:82:e9:90:25:6d:52:37
                Exponent: 65537 (0x10001)
    Signature Algorithm: sha1WithRSAEncryption
         10:53:47:a4:a6:91:97:6b:42:06:7e:8f:25:e1:46:56:ae:a0:
         4e:84:38:db:ac:e8:76:2d:c4:81:53:4a:22:1c:1f:e9:58:70:
         25:88:3c:bc:86:a5:d0:03:7a:eb:d7:b8:ab:72:6e:39:f2:85:
         05:ba:91:07:bc:1d:ba:c9:08:8e:d6:e3:4b:41:c2:2e:5d:38:
         86:a1:40:36:c5:c7:a9:82:36:1b:65:a8:67:d5:66:d8:4c:9b:
         8a:16:d7:0d:c6:43:95:b2:af:83:9a:3d:f8:ca:f7:35:46:8a:
         f8:95:ca:a5:83:97:e8:3c:4f:1a:1f:63:8d:ae:81:b6:3f:03:
         3b:79
-----BEGIN CERTIFICATE-----
MIIByzCCATQCCQCr/VI8PlLAezANBgkqhkiG9w0BAQUFADAqMRMwEQYKCZImiZPy
LGQBGRYDamltMRMwEQYKCZImiZPyLGQBGRYDY29tMB4XDTE2MDcyMjAxMDQyNloX
DTE3MDcyMjAxMDQyNlowKjETMBEGCgmSJomT8ixkARkWA2ppbTETMBEGCgmSJomT
8ixkARkWA2NvbTCBnzANBgkqhkiG9w0BAQEFAAOBjQAwgYkCgYEA1Zpd2A1aophc
lYCvK4BBIrQPvhquu616ryleNFeRpU+zhkC/otM61/IpC0fCKQr1XLN+xe/CqIRf
cA4/OeJ5HFAmzYdCYoaK9yOWmJabxBZTuEvJ41cPSjq2Pi/f9AC0QCulDveoE8ET
luaP/ILcg8VCcRBdg4ls3oLpkCVtUjcCAwEAATANBgkqhkiG9w0BAQUFAAOBgQAQ
U0ekppGXa0IGfo8l4UZWrqBOhDjbrOh2LcSBU0oiHB/pWHAliDy8hqXQA3rr17ir
cm458oUFupEHvB26yQiO1uNLQcIuXTiGoUA2xcepgjYbZahn1WbYTJuKFtcNxkOV
sq+Dmj34yvc1Ror4lcqlg5foPE8aH2ONroG2PwM7eQ==
-----END CERTIFICATE-----
